; Function Attrs: nounwind sspstrong uwtable
define internal i64 @ractor_local_value(ptr noundef readonly captures(none) %0, i64 %1, i64 noundef %2) #0 {
  %4 = alloca i64, align 8
  %5 = alloca i64, align 8
  store i64 %2, ptr %4, align 8, !tbaa !80
  %6 = getelementptr i8, ptr %0, i64 48
  %.val = load ptr, ptr %6, align 8, !tbaa !90
  %.not.i = icmp eq ptr %.val, null
  br i1 %.not.i, label %rb_ec_ractor_ptr.exit, label %7

7:                                                ; preds = %3
  %8 = getelementptr inbounds nuw i8, ptr %.val, i64 24
  %9 = load ptr, ptr %8, align 8, !tbaa !57
  br label %rb_ec_ractor_ptr.exit

rb_ec_ractor_ptr.exit:                            ; preds = %3, %7
  %.0.i = phi ptr [ %9, %7 ], [ null, %3 ]
  %10 = call i64 @rb_check_id(ptr noundef nonnull %4) #19
  %11 = getelementptr inbounds nuw i8, ptr %.0.i, i64 456
  %12 = load ptr, ptr %11, align 8, !tbaa !219
  call void @llvm.lifetime.start.p0(i64 8, ptr nonnull %5) #19
  %13 = icmp ne i64 %10, 0
  %14 = icmp ne ptr %12, null
  %or.cond = select i1 %13, i1 %14, i1 false
  br i1 %or.cond, label %15, label %18

15:                                               ; preds = %rb_ec_ractor_ptr.exit
  %16 = call i32 @rb_id_table_lookup(ptr noundef nonnull %12, i64 noundef %10, ptr noundef nonnull %5) #19
  %.not = icmp eq i32 %16, 0
  %17 = load i64, ptr %5, align 8
  %spec.select = select i1 %.not, i64 4, i64 %17
  br label %18

18:                                               ; preds = %15, %rb_ec_ractor_ptr.exit
  %.0 = phi i64 [ 4, %rb_ec_ractor_ptr.exit ], [ %spec.select, %15 ]
  call void @llvm.lifetime.end.p0(i64 8, ptr nonnull %5) #19
  ret i64 %.0
}